; Function Attrs: mustprogress uwtable
define internal noundef zeroext i1 @_ZL16ValidateLogLevelRKN3ozz7options6OptionEi(ptr noundef nonnull readonly align 8 captures(none) dereferenceable(40) %0, i32 %1) #3 personality ptr @__gxx_personality_v0 {
  %3 = alloca %"class.ozz::log::Err", align 8
  %4 = getelementptr inbounds nuw i8, ptr %0, i64 48
  %5 = load ptr, ptr %4, align 8, !tbaa !4
  %6 = tail call i32 @strcmp(ptr noundef nonnull dereferenceable(1) %5, ptr noundef nonnull dereferenceable(8) @.str.18) #16
  %7 = icmp eq i32 %6, 0
  br i1 %7, label %.thread, label %8

8:                                                ; preds = %2
  %9 = tail call i32 @strcmp(ptr noundef nonnull dereferenceable(1) %5, ptr noundef nonnull dereferenceable(9) @.str.16) #16
  %10 = icmp eq i32 %9, 0
  br i1 %10, label %.thread, label %11

11:                                               ; preds = %8
  %12 = tail call i32 @strcmp(ptr noundef nonnull dereferenceable(1) %5, ptr noundef nonnull dereferenceable(7) @.str.17) #16
  %13 = icmp eq i32 %12, 0
  br i1 %13, label %.thread, label %14

14:                                               ; preds = %11
  call void @llvm.lifetime.start.p0(i64 16, ptr nonnull %3) #17
  call void @_ZN3ozz3log3ErrC1Ev(ptr noundef nonnull align 8 dereferenceable(9) %3)
  %15 = load ptr, ptr %3, align 8, !tbaa !9
  %16 = invoke noundef nonnull align 8 dereferenceable(8) ptr @_ZSt16__ostream_insertIcSt11char_traitsIcEERSt13basic_ostreamIT_T0_ES6_PKS3_l(ptr noundef nonnull align 8 dereferenceable(8) %15, ptr noundef nonnull @.str.35, i64 noundef 26)
          to label %_ZN3ozz3log6LoggerlsIA27_cEERSoRKT_.exit unwind label %49

_ZN3ozz3log6LoggerlsIA27_cEERSoRKT_.exit:         ; preds = %14
  %17 = load ptr, ptr %4, align 8, !tbaa !13
  %.not.i = icmp eq ptr %17, null
  br i1 %.not.i, label %18, label %26

18:                                               ; preds = %_ZN3ozz3log6LoggerlsIA27_cEERSoRKT_.exit
  %19 = load ptr, ptr %15, align 8, !tbaa !16
  %20 = getelementptr i8, ptr %19, i64 -24
  %21 = load i64, ptr %20, align 8
  %22 = getelementptr inbounds i8, ptr %15, i64 %21
  %23 = getelementptr inbounds nuw i8, ptr %22, i64 32
  %24 = load i32, ptr %23, align 8, !tbaa !18
  %25 = or i32 %24, 1
  invoke void @_ZNSt9basic_iosIcSt11char_traitsIcEE5clearESt12_Ios_Iostate(ptr noundef nonnull align 8 dereferenceable(264) %22, i32 noundef %25)
          to label %_ZStlsISt11char_traitsIcEERSt13basic_ostreamIcT_ES5_PKc.exit unwind label %49

26:                                               ; preds = %_ZN3ozz3log6LoggerlsIA27_cEERSoRKT_.exit
  %27 = call noundef i64 @strlen(ptr noundef nonnull dereferenceable(1) %17) #17
  %28 = invoke noundef nonnull align 8 dereferenceable(8) ptr @_ZSt16__ostream_insertIcSt11char_traitsIcEERSt13basic_ostreamIT_T0_ES6_PKS3_l(ptr noundef nonnull align 8 dereferenceable(8) %15, ptr noundef nonnull %17, i64 noundef %27)
          to label %_ZStlsISt11char_traitsIcEERSt13basic_ostreamIcT_ES5_PKc.exit unwind label %49

_ZStlsISt11char_traitsIcEERSt13basic_ostreamIcT_ES5_PKc.exit: ; preds = %18, %26
  %29 = invoke noundef nonnull align 8 dereferenceable(8) ptr @_ZSt16__ostream_insertIcSt11char_traitsIcEERSt13basic_ostreamIT_T0_ES6_PKS3_l(ptr noundef nonnull align 8 dereferenceable(8) %15, ptr noundef nonnull @.str.25, i64 noundef 1)
          to label %_ZStlsISt11char_traitsIcEERSt13basic_ostreamIcT_ES5_PKc.exit10 unwind label %49

_ZStlsISt11char_traitsIcEERSt13basic_ostreamIcT_ES5_PKc.exit10: ; preds = %_ZStlsISt11char_traitsIcEERSt13basic_ostreamIcT_ES5_PKc.exit
  %30 = load ptr, ptr %15, align 8, !tbaa !16
  %31 = getelementptr i8, ptr %30, i64 -24
  %32 = load i64, ptr %31, align 8
  %33 = getelementptr inbounds i8, ptr %15, i64 %32
  %34 = getelementptr inbounds nuw i8, ptr %33, i64 240
  %35 = load ptr, ptr %34, align 8, !tbaa !29
  %.not.i.i.i = icmp eq ptr %35, null
  br i1 %.not.i.i.i, label %36, label %_ZSt13__check_facetISt5ctypeIcEERKT_PS3_.exit.i.i

36:                                               ; preds = %_ZStlsISt11char_traitsIcEERSt13basic_ostreamIcT_ES5_PKc.exit10
  invoke void @_ZSt16__throw_bad_castv() #18
          to label %.noexc12 unwind label %49

.noexc12:                                         ; preds = %36
  unreachable

_ZSt13__check_facetISt5ctypeIcEERKT_PS3_.exit.i.i: ; preds = %_ZStlsISt11char_traitsIcEERSt13basic_ostreamIcT_ES5_PKc.exit10
  %37 = getelementptr inbounds nuw i8, ptr %35, i64 56
  %38 = load i8, ptr %37, align 8, !tbaa !35
  %.not.i1.i.i = icmp eq i8 %38, 0
  br i1 %.not.i1.i.i, label %42, label %39

39:                                               ; preds = %_ZSt13__check_facetISt5ctypeIcEERKT_PS3_.exit.i.i
  %40 = getelementptr inbounds nuw i8, ptr %35, i64 67
  %41 = load i8, ptr %40, align 1, !tbaa !41
  br label %_ZNKSt9basic_iosIcSt11char_traitsIcEE5widenEc.exit.i

42:                                               ; preds = %_ZSt13__check_facetISt5ctypeIcEERKT_PS3_.exit.i.i
  invoke void @_ZNKSt5ctypeIcE13_M_widen_initEv(ptr noundef nonnull align 8 dereferenceable(570) %35)
          to label %.noexc13 unwind label %49

.noexc13:                                         ; preds = %42
  %43 = load ptr, ptr %35, align 8, !tbaa !16
  %44 = getelementptr inbounds nuw i8, ptr %43, i64 48
  %45 = load ptr, ptr %44, align 8
  %46 = invoke noundef signext i8 %45(ptr noundef nonnull align 8 dereferenceable(570) %35, i8 noundef signext 10)
          to label %_ZNKSt9basic_iosIcSt11char_traitsIcEE5widenEc.exit.i unwind label %49

_ZNKSt9basic_iosIcSt11char_traitsIcEE5widenEc.exit.i: ; preds = %.noexc13, %39
  %.0.i.i.i = phi i8 [ %41, %39 ], [ %46, %.noexc13 ]
  %47 = invoke noundef nonnull align 8 dereferenceable(8) ptr @_ZNSo3putEc(ptr noundef nonnull align 8 dereferenceable(8) %15, i8 noundef signext %.0.i.i.i)
          to label %.noexc15 unwind label %49

.noexc15:                                         ; preds = %_ZNKSt9basic_iosIcSt11char_traitsIcEE5widenEc.exit.i
  %48 = invoke noundef nonnull align 8 dereferenceable(8) ptr @_ZNSo5flushEv(ptr noundef nonnull align 8 dereferenceable(8) %47)
          to label %_ZNSolsEPFRSoS_E.exit unwind label %49

_ZNSolsEPFRSoS_E.exit:                            ; preds = %.noexc15
  call void @_ZN3ozz3log6LoggerD2Ev(ptr noundef nonnull align 8 dereferenceable(9) %3) #17
  call void @llvm.lifetime.end.p0(i64 16, ptr nonnull %3) #17
  br label %.thread

49:                                               ; preds = %.noexc15, %_ZNKSt9basic_iosIcSt11char_traitsIcEE5widenEc.exit.i, %.noexc13, %42, %36, %_ZStlsISt11char_traitsIcEERSt13basic_ostreamIcT_ES5_PKc.exit, %26, %18, %14
  %50 = landingpad { ptr, i32 }
          cleanup
  call void @_ZN3ozz3log6LoggerD2Ev(ptr noundef nonnull align 8 dereferenceable(9) %3) #17
  call void @llvm.lifetime.end.p0(i64 16, ptr nonnull %3) #17
  resume { ptr, i32 } %50

.thread:                                          ; preds = %2, %8, %_ZNSolsEPFRSoS_E.exit, %11
  %51 = phi i1 [ false, %_ZNSolsEPFRSoS_E.exit ], [ true, %11 ], [ true, %8 ], [ true, %2 ]
  ret i1 %51
}